target datalayout = "e-m:e-p270:32:32-p271:32:32-p272:64:64-i64:64-i128:128-f80:128-n8:16:32:64-S128"
target triple = "x86_64-pc-linux-gnu"

@.str.121 = private unnamed_addr constant [24 x i8] c"in cli_untgz_cleanup()\0A\00", align 1

; Function Attrs: nounwind uwtable
define internal void @cli_untgz_cleanup(ptr noundef %0, ptr noundef %1, ptr noundef %2, i32 noundef %3) #0 {
  %5 = alloca ptr, align 8
  %6 = alloca ptr, align 8
  %7 = alloca ptr, align 8
  %8 = alloca i32, align 4
  store ptr %0, ptr %5, align 8, !tbaa !3
  store ptr %1, ptr %6, align 8, !tbaa !92
  store ptr %2, ptr %7, align 8, !tbaa !20
  store i32 %3, ptr %8, align 4, !tbaa !22
  call void (ptr, ...) @cli_dbgmsg(ptr noundef @.str.121)
  %9 = load ptr, ptr %5, align 8, !tbaa !3
  %10 = icmp ne ptr %9, null
  br i1 %10, label %11, label %13

11:                                               ; preds = %4
  %12 = load ptr, ptr %5, align 8, !tbaa !3
  call void @free(ptr noundef %12) #11
  br label %13

13:                                               ; preds = %11, %4
  %14 = load ptr, ptr %6, align 8, !tbaa !92
  %15 = icmp ne ptr %14, null
  br i1 %15, label %16, label %19

16:                                               ; preds = %13
  %17 = load ptr, ptr %6, align 8, !tbaa !92
  %18 = call i32 @gzclose(ptr noundef %17)
  br label %19

19:                                               ; preds = %16, %13
  %20 = load ptr, ptr %7, align 8, !tbaa !20
  %21 = icmp ne ptr %20, null
  br i1 %21, label %22, label %25

22:                                               ; preds = %19
  %23 = load ptr, ptr %7, align 8, !tbaa !20
  %24 = call i32 @fclose(ptr noundef %23)
  br label %25

25:                                               ; preds = %22, %19
  ret void
}