; Function Attrs: nounwind uwtable
define internal fastcc void @cli_untgz_cleanup(ptr noundef %0, ptr noundef nonnull %1, ptr noundef %2) unnamed_addr #0 {
  tail call void (ptr, ...) @cli_dbgmsg(ptr noundef nonnull @.str.121) #19
  %.not = icmp eq ptr %0, null
  br i1 %.not, label %5, label %4

4:                                                ; preds = %3
  tail call void @free(ptr noundef nonnull %0) #19
  br label %5

5:                                                ; preds = %3, %4
  %6 = tail call i32 @gzclose(ptr noundef nonnull %1) #19
  %.not8 = icmp eq ptr %2, null
  br i1 %.not8, label %9, label %7

7:                                                ; preds = %5
  %8 = tail call i32 @fclose(ptr noundef nonnull %2)
  br label %9

9:                                                ; preds = %7, %5
  ret void
}